target datalayout = "e-m:e-p270:32:32-p271:32:32-p272:64:64-i64:64-i128:128-f80:128-n8:16:32:64-S128"
target triple = "x86_64-pc-linux-gnu"

%struct.PaPulseAudio_HostApiRepresentation = type { %struct.PaUtilHostApiRepresentation, %struct.PaUtilStreamInterface, %struct.PaUtilStreamInterface, ptr, i32, [1024 x %struct.PaDeviceInfo], [1024 x ptr], %struct.pa_sample_spec, ptr, ptr, ptr, i32, ptr }
%struct.PaUtilHostApiRepresentation = type { %struct.PaUtilPrivatePaFrontHostApiInfo, %struct.PaHostApiInfo, ptr, ptr, ptr, ptr }
%struct.PaUtilPrivatePaFrontHostApiInfo = type { i64 }
%struct.PaHostApiInfo = type { i32, i32, ptr, i32, i32, i32 }
%struct.PaUtilStreamInterface = type { ptr, ptr, ptr, ptr, ptr, ptr, ptr, ptr, ptr, ptr, ptr, ptr }
%struct.PaDeviceInfo = type { i32, ptr, i32, i32, i32, double, double, double, double, double }
%struct.pa_sample_spec = type { i32, i32, i8 }

@.str.2 = private unnamed_addr constant [3 x i8] c"%s\00", align 1
@.str.8 = private unnamed_addr constant [49 x i8] c"_PaPulseAudio_AddAudioDevice: Can't alloc memory\00", align 1

; Function Attrs: nounwind uwtable
define i32 @_PaPulseAudio_AddAudioDevice(ptr noundef %0, ptr noundef %1, ptr noundef %2, i32 noundef %3, i32 noundef %4, double noundef %5, double noundef %6, double noundef %7, double noundef %8, i64 noundef %9) #0 {
  %11 = alloca i32, align 4
  %12 = alloca ptr, align 8
  %13 = alloca ptr, align 8
  %14 = alloca ptr, align 8
  %15 = alloca i32, align 4
  %16 = alloca i32, align 4
  %17 = alloca double, align 8
  %18 = alloca double, align 8
  %19 = alloca double, align 8
  %20 = alloca double, align 8
  %21 = alloca i64, align 8
  %22 = alloca i32, align 4
  %23 = alloca i32, align 4
  %24 = alloca ptr, align 8
  store ptr %0, ptr %12, align 8
  store ptr %1, ptr %13, align 8
  store ptr %2, ptr %14, align 8
  store i32 %3, ptr %15, align 4
  store i32 %4, ptr %16, align 4
  store double %5, ptr %17, align 8
  store double %6, ptr %18, align 8
  store double %7, ptr %19, align 8
  store double %8, ptr %20, align 8
  store i64 %9, ptr %21, align 8
  %25 = load ptr, ptr %14, align 8
  %26 = call i64 @strnlen(ptr noundef %25, i64 noundef 1023) #9
  %27 = add i64 %26, 1
  %28 = trunc i64 %27 to i32
  store i32 %28, ptr %22, align 4
  %29 = load ptr, ptr %13, align 8
  %30 = call i64 @strnlen(ptr noundef %29, i64 noundef 1023) #9
  %31 = add i64 %30, 1
  %32 = trunc i64 %31 to i32
  store i32 %32, ptr %23, align 4
  store ptr null, ptr %24, align 8
  %33 = load ptr, ptr %12, align 8
  %34 = getelementptr inbounds nuw %struct.PaPulseAudio_HostApiRepresentation, ptr %33, i32 0, i32 5
  %35 = load ptr, ptr %12, align 8
  %36 = getelementptr inbounds nuw %struct.PaPulseAudio_HostApiRepresentation, ptr %35, i32 0, i32 11
  %37 = load i32, ptr %36, align 8
  %38 = sext i32 %37 to i64
  %39 = getelementptr inbounds [1024 x %struct.PaDeviceInfo], ptr %34, i64 0, i64 %38
  %40 = getelementptr inbounds nuw %struct.PaDeviceInfo, ptr %39, i32 0, i32 0
  store i32 2, ptr %40, align 8
  %41 = load ptr, ptr %12, align 8
  %42 = getelementptr inbounds nuw %struct.PaPulseAudio_HostApiRepresentation, ptr %41, i32 0, i32 4
  %43 = load i32, ptr %42, align 8
  %44 = load ptr, ptr %12, align 8
  %45 = getelementptr inbounds nuw %struct.PaPulseAudio_HostApiRepresentation, ptr %44, i32 0, i32 5
  %46 = load ptr, ptr %12, align 8
  %47 = getelementptr inbounds nuw %struct.PaPulseAudio_HostApiRepresentation, ptr %46, i32 0, i32 11
  %48 = load i32, ptr %47, align 8
  %49 = sext i32 %48 to i64
  %50 = getelementptr inbounds [1024 x %struct.PaDeviceInfo], ptr %45, i64 0, i64 %49
  %51 = getelementptr inbounds nuw %struct.PaDeviceInfo, ptr %50, i32 0, i32 2
  store i32 %43, ptr %51, align 8
  %52 = load ptr, ptr %12, align 8
  %53 = getelementptr inbounds nuw %struct.PaPulseAudio_HostApiRepresentation, ptr %52, i32 0, i32 3
  %54 = load ptr, ptr %53, align 8
  %55 = load i32, ptr %22, align 4
  %56 = sext i32 %55 to i64
  %57 = call ptr @PaUtil_GroupAllocateZeroInitializedMemory(ptr noundef %54, i64 noundef %56)
  %58 = load ptr, ptr %12, align 8
  %59 = getelementptr inbounds nuw %struct.PaPulseAudio_HostApiRepresentation, ptr %58, i32 0, i32 6
  %60 = load ptr, ptr %12, align 8
  %61 = getelementptr inbounds nuw %struct.PaPulseAudio_HostApiRepresentation, ptr %60, i32 0, i32 11
  %62 = load i32, ptr %61, align 8
  %63 = sext i32 %62 to i64
  %64 = getelementptr inbounds [1024 x ptr], ptr %59, i64 0, i64 %63
  store ptr %57, ptr %64, align 8
  %65 = load ptr, ptr %12, align 8
  %66 = getelementptr inbounds nuw %struct.PaPulseAudio_HostApiRepresentation, ptr %65, i32 0, i32 3
  %67 = load ptr, ptr %66, align 8
  %68 = load i32, ptr %23, align 4
  %69 = sext i32 %68 to i64
  %70 = call ptr @PaUtil_GroupAllocateZeroInitializedMemory(ptr noundef %67, i64 noundef %69)
  store ptr %70, ptr %24, align 8
  %71 = load ptr, ptr %12, align 8
  %72 = getelementptr inbounds nuw %struct.PaPulseAudio_HostApiRepresentation, ptr %71, i32 0, i32 6
  %73 = load ptr, ptr %12, align 8
  %74 = getelementptr inbounds nuw %struct.PaPulseAudio_HostApiRepresentation, ptr %73, i32 0, i32 11
  %75 = load i32, ptr %74, align 8
  %76 = sext i32 %75 to i64
  %77 = getelementptr inbounds [1024 x ptr], ptr %72, i64 0, i64 %76
  %78 = load ptr, ptr %77, align 8
  %79 = icmp ne ptr %78, null
  br i1 %79, label %84, label %80

80:                                               ; preds = %10
  %81 = load ptr, ptr %24, align 8
  %82 = icmp ne ptr %81, null
  br i1 %82, label %84, label %83

83:                                               ; preds = %80
  call void @PaUtil_SetLastHostErrorInfo(i32 noundef 0, i64 noundef 0, ptr noundef @.str.8)
  store i32 -9992, ptr %11, align 4
  br label %185

84:                                               ; preds = %80, %10
  %85 = load ptr, ptr %12, align 8
  %86 = getelementptr inbounds nuw %struct.PaPulseAudio_HostApiRepresentation, ptr %85, i32 0, i32 11
  %87 = load i32, ptr %86, align 8
  %88 = icmp sge i32 %87, 1024
  br i1 %88, label %89, label %90

89:                                               ; preds = %84
  store i32 -9985, ptr %11, align 4
  br label %185

90:                                               ; preds = %84
  %91 = load ptr, ptr %12, align 8
  %92 = getelementptr inbounds nuw %struct.PaPulseAudio_HostApiRepresentation, ptr %91, i32 0, i32 6
  %93 = load ptr, ptr %12, align 8
  %94 = getelementptr inbounds nuw %struct.PaPulseAudio_HostApiRepresentation, ptr %93, i32 0, i32 11
  %95 = load i32, ptr %94, align 8
  %96 = sext i32 %95 to i64
  %97 = getelementptr inbounds [1024 x ptr], ptr %92, i64 0, i64 %96
  %98 = load ptr, ptr %97, align 8
  %99 = load i32, ptr %22, align 4
  %100 = sext i32 %99 to i64
  %101 = load ptr, ptr %14, align 8
  %102 = call i32 (ptr, i64, ptr, ...) @snprintf(ptr noundef %98, i64 noundef %100, ptr noundef @.str.2, ptr noundef %101) #8
  %103 = load ptr, ptr %24, align 8
  %104 = load i32, ptr %23, align 4
  %105 = sext i32 %104 to i64
  %106 = load ptr, ptr %13, align 8
  %107 = call i32 (ptr, i64, ptr, ...) @snprintf(ptr noundef %103, i64 noundef %105, ptr noundef @.str.2, ptr noundef %106) #8
  %108 = load ptr, ptr %24, align 8
  %109 = load ptr, ptr %12, align 8
  %110 = getelementptr inbounds nuw %struct.PaPulseAudio_HostApiRepresentation, ptr %109, i32 0, i32 5
  %111 = load ptr, ptr %12, align 8
  %112 = getelementptr inbounds nuw %struct.PaPulseAudio_HostApiRepresentation, ptr %111, i32 0, i32 11
  %113 = load i32, ptr %112, align 8
  %114 = sext i32 %113 to i64
  %115 = getelementptr inbounds [1024 x %struct.PaDeviceInfo], ptr %110, i64 0, i64 %114
  %116 = getelementptr inbounds nuw %struct.PaDeviceInfo, ptr %115, i32 0, i32 1
  store ptr %108, ptr %116, align 8
  %117 = load i32, ptr %15, align 4
  %118 = load ptr, ptr %12, align 8
  %119 = getelementptr inbounds nuw %struct.PaPulseAudio_HostApiRepresentation, ptr %118, i32 0, i32 5
  %120 = load ptr, ptr %12, align 8
  %121 = getelementptr inbounds nuw %struct.PaPulseAudio_HostApiRepresentation, ptr %120, i32 0, i32 11
  %122 = load i32, ptr %121, align 8
  %123 = sext i32 %122 to i64
  %124 = getelementptr inbounds [1024 x %struct.PaDeviceInfo], ptr %119, i64 0, i64 %123
  %125 = getelementptr inbounds nuw %struct.PaDeviceInfo, ptr %124, i32 0, i32 3
  store i32 %117, ptr %125, align 4
  %126 = load i32, ptr %16, align 4
  %127 = load ptr, ptr %12, align 8
  %128 = getelementptr inbounds nuw %struct.PaPulseAudio_HostApiRepresentation, ptr %127, i32 0, i32 5
  %129 = load ptr, ptr %12, align 8
  %130 = getelementptr inbounds nuw %struct.PaPulseAudio_HostApiRepresentation, ptr %129, i32 0, i32 11
  %131 = load i32, ptr %130, align 8
  %132 = sext i32 %131 to i64
  %133 = getelementptr inbounds [1024 x %struct.PaDeviceInfo], ptr %128, i64 0, i64 %132
  %134 = getelementptr inbounds nuw %struct.PaDeviceInfo, ptr %133, i32 0, i32 4
  store i32 %126, ptr %134, align 8
  %135 = load double, ptr %17, align 8
  %136 = load ptr, ptr %12, align 8
  %137 = getelementptr inbounds nuw %struct.PaPulseAudio_HostApiRepresentation, ptr %136, i32 0, i32 5
  %138 = load ptr, ptr %12, align 8
  %139 = getelementptr inbounds nuw %struct.PaPulseAudio_HostApiRepresentation, ptr %138, i32 0, i32 11
  %140 = load i32, ptr %139, align 8
  %141 = sext i32 %140 to i64
  %142 = getelementptr inbounds [1024 x %struct.PaDeviceInfo], ptr %137, i64 0, i64 %141
  %143 = getelementptr inbounds nuw %struct.PaDeviceInfo, ptr %142, i32 0, i32 5
  store double %135, ptr %143, align 8
  %144 = load double, ptr %19, align 8
  %145 = load ptr, ptr %12, align 8
  %146 = getelementptr inbounds nuw %struct.PaPulseAudio_HostApiRepresentation, ptr %145, i32 0, i32 5
  %147 = load ptr, ptr %12, align 8
  %148 = getelementptr inbounds nuw %struct.PaPulseAudio_HostApiRepresentation, ptr %147, i32 0, i32 11
  %149 = load i32, ptr %148, align 8
  %150 = sext i32 %149 to i64
  %151 = getelementptr inbounds [1024 x %struct.PaDeviceInfo], ptr %146, i64 0, i64 %150
  %152 = getelementptr inbounds nuw %struct.PaDeviceInfo, ptr %151, i32 0, i32 6
  store double %144, ptr %152, align 8
  %153 = load double, ptr %18, align 8
  %154 = load ptr, ptr %12, align 8
  %155 = getelementptr inbounds nuw %struct.PaPulseAudio_HostApiRepresentation, ptr %154, i32 0, i32 5
  %156 = load ptr, ptr %12, align 8
  %157 = getelementptr inbounds nuw %struct.PaPulseAudio_HostApiRepresentation, ptr %156, i32 0, i32 11
  %158 = load i32, ptr %157, align 8
  %159 = sext i32 %158 to i64
  %160 = getelementptr inbounds [1024 x %struct.PaDeviceInfo], ptr %155, i64 0, i64 %159
  %161 = getelementptr inbounds nuw %struct.PaDeviceInfo, ptr %160, i32 0, i32 7
  store double %153, ptr %161, align 8
  %162 = load double, ptr %20, align 8
  %163 = load ptr, ptr %12, align 8
  %164 = getelementptr inbounds nuw %struct.PaPulseAudio_HostApiRepresentation, ptr %163, i32 0, i32 5
  %165 = load ptr, ptr %12, align 8
  %166 = getelementptr inbounds nuw %struct.PaPulseAudio_HostApiRepresentation, ptr %165, i32 0, i32 11
  %167 = load i32, ptr %166, align 8
  %168 = sext i32 %167 to i64
  %169 = getelementptr inbounds [1024 x %struct.PaDeviceInfo], ptr %164, i64 0, i64 %168
  %170 = getelementptr inbounds nuw %struct.PaDeviceInfo, ptr %169, i32 0, i32 8
  store double %162, ptr %170, align 8
  %171 = load i64, ptr %21, align 8
  %172 = sitofp i64 %171 to double
  %173 = load ptr, ptr %12, align 8
  %174 = getelementptr inbounds nuw %struct.PaPulseAudio_HostApiRepresentation, ptr %173, i32 0, i32 5
  %175 = load ptr, ptr %12, align 8
  %176 = getelementptr inbounds nuw %struct.PaPulseAudio_HostApiRepresentation, ptr %175, i32 0, i32 11
  %177 = load i32, ptr %176, align 8
  %178 = sext i32 %177 to i64
  %179 = getelementptr inbounds [1024 x %struct.PaDeviceInfo], ptr %174, i64 0, i64 %178
  %180 = getelementptr inbounds nuw %struct.PaDeviceInfo, ptr %179, i32 0, i32 9
  store double %172, ptr %180, align 8
  %181 = load ptr, ptr %12, align 8
  %182 = getelementptr inbounds nuw %struct.PaPulseAudio_HostApiRepresentation, ptr %181, i32 0, i32 11
  %183 = load i32, ptr %182, align 8
  %184 = add nsw i32 %183, 1
  store i32 %184, ptr %182, align 8
  store i32 0, ptr %11, align 4
  br label %185

185:                                              ; preds = %90, %89, %83
  %186 = load i32, ptr %11, align 4
  ret i32 %186
}