; Function Attrs: nounwind uwtable
define range(i32 -9992, 1) i32 @_PaPulseAudio_AddAudioDevice(ptr nocapture noundef %0, ptr noundef %1, ptr noundef %2, i32 noundef %3, i32 noundef %4, double noundef %5, double noundef %6, double noundef %7, double noundef %8, i64 noundef %9) local_unnamed_addr #0 {
  %11 = tail call i64 @strnlen(ptr noundef nonnull dereferenceable(1) %2, i64 noundef 1023) #14
  %12 = tail call i64 @strnlen(ptr noundef nonnull dereferenceable(1) %1, i64 noundef 1023) #14
  %13 = getelementptr inbounds nuw i8, ptr %0, i64 280
  %14 = getelementptr inbounds nuw i8, ptr %0, i64 82240
  %15 = load i32, ptr %14, align 8
  %16 = sext i32 %15 to i64
  %17 = getelementptr inbounds [1024 x %struct.PaDeviceInfo], ptr %13, i64 0, i64 %16
  store i32 2, ptr %17, align 8
  %18 = getelementptr inbounds nuw i8, ptr %0, i64 272
  %19 = load i32, ptr %18, align 8
  %20 = getelementptr inbounds [1024 x %struct.PaDeviceInfo], ptr %13, i64 0, i64 %16, i32 2
  store i32 %19, ptr %20, align 8
  %21 = getelementptr inbounds nuw i8, ptr %0, i64 264
  %22 = load ptr, ptr %21, align 8
  %23 = shl i64 %11, 32
  %sext = add i64 %23, 4294967296
  %24 = ashr exact i64 %sext, 32
  %25 = tail call ptr @PaUtil_GroupAllocateZeroInitializedMemory(ptr noundef %22, i64 noundef %24) #13
  %26 = getelementptr inbounds nuw i8, ptr %0, i64 74008
  %27 = load i32, ptr %14, align 8
  %28 = sext i32 %27 to i64
  %29 = getelementptr inbounds [1024 x ptr], ptr %26, i64 0, i64 %28
  store ptr %25, ptr %29, align 8
  %30 = load ptr, ptr %21, align 8
  %31 = shl i64 %12, 32
  %sext50 = add i64 %31, 4294967296
  %32 = ashr exact i64 %sext50, 32
  %33 = tail call ptr @PaUtil_GroupAllocateZeroInitializedMemory(ptr noundef %30, i64 noundef %32) #13
  %34 = load i32, ptr %14, align 8
  %35 = sext i32 %34 to i64
  %36 = getelementptr inbounds [1024 x ptr], ptr %26, i64 0, i64 %35
  %37 = load ptr, ptr %36, align 8
  %38 = icmp ne ptr %37, null
  %39 = icmp ne ptr %33, null
  %or.cond = select i1 %38, i1 true, i1 %39
  br i1 %or.cond, label %41, label %40

40:                                               ; preds = %10
  tail call void @PaUtil_SetLastHostErrorInfo(i32 noundef 0, i64 noundef 0, ptr noundef nonnull @.str.8) #13
  br label %60

41:                                               ; preds = %10
  %42 = icmp sgt i32 %34, 1023
  br i1 %42, label %60, label %43

43:                                               ; preds = %41
  %44 = tail call i32 (ptr, i64, ptr, ...) @snprintf(ptr noundef %37, i64 noundef %24, ptr noundef nonnull @.str.2, ptr noundef %2) #13
  %45 = tail call i32 (ptr, i64, ptr, ...) @snprintf(ptr noundef %33, i64 noundef %32, ptr noundef nonnull @.str.2, ptr noundef %1) #13
  %46 = load i32, ptr %14, align 8
  %47 = sext i32 %46 to i64
  %48 = getelementptr inbounds [1024 x %struct.PaDeviceInfo], ptr %13, i64 0, i64 %47, i32 1
  store ptr %33, ptr %48, align 8
  %49 = getelementptr inbounds [1024 x %struct.PaDeviceInfo], ptr %13, i64 0, i64 %47, i32 3
  store i32 %3, ptr %49, align 4
  %50 = getelementptr inbounds [1024 x %struct.PaDeviceInfo], ptr %13, i64 0, i64 %47, i32 4
  store i32 %4, ptr %50, align 8
  %51 = load i32, ptr %14, align 8
  %52 = sext i32 %51 to i64
  %53 = getelementptr inbounds [1024 x %struct.PaDeviceInfo], ptr %13, i64 0, i64 %52, i32 5
  store double %5, ptr %53, align 8
  %54 = getelementptr inbounds [1024 x %struct.PaDeviceInfo], ptr %13, i64 0, i64 %52, i32 6
  store double %7, ptr %54, align 8
  %55 = getelementptr inbounds [1024 x %struct.PaDeviceInfo], ptr %13, i64 0, i64 %52, i32 7
  store double %6, ptr %55, align 8
  %56 = getelementptr inbounds [1024 x %struct.PaDeviceInfo], ptr %13, i64 0, i64 %52, i32 8
  store double %8, ptr %56, align 8
  %57 = sitofp i64 %9 to double
  %58 = getelementptr inbounds [1024 x %struct.PaDeviceInfo], ptr %13, i64 0, i64 %52, i32 9
  store double %57, ptr %58, align 8
  %59 = add nsw i32 %51, 1
  store i32 %59, ptr %14, align 8
  br label %60

60:                                               ; preds = %41, %43, %40
  %.0 = phi i32 [ 0, %43 ], [ -9992, %40 ], [ -9985, %41 ]
  ret i32 %.0
}